; Function Attrs: mustprogress nofree norecurse nosync nounwind willreturn memory(argmem: read) uwtable
define noundef zeroext i1 @_ZN6duckdb13ParquetCrypto8ValidKeyERKNSt7__cxx1112basic_stringIcSt11char_traitsIcESaIcEEE(ptr noundef nonnull readonly align 8 captures(none) dereferenceable(32) %0) local_unnamed_addr #10 align 2 {
  %2 = getelementptr inbounds nuw i8, ptr %0, i64 8
  %3 = load i64, ptr %2, align 8, !tbaa !12
  %4 = icmp ult i64 %3, 33
  %switch.cast = trunc i64 %3 to i33
  %switch.downshift = lshr i33 -4278124544, %switch.cast
  %switch.masked = trunc i33 %switch.downshift to i1
  %.0 = select i1 %4, i1 %switch.masked, i1 false
  ret i1 %.0
}